	.cpu arm7tdmi
	.eabi_attribute 20, 1
	.eabi_attribute 21, 1
	.eabi_attribute 23, 3
	.eabi_attribute 24, 1
	.eabi_attribute 25, 1
	.eabi_attribute 26, 1
	.eabi_attribute 30, 2
	.eabi_attribute 34, 0
	.eabi_attribute 18, 4
	.file	"humanLib.c"
	.text
	.align	2
	.global	initHuman
	.arch armv4t
	.syntax unified
	.arm
	.fpu softvfp
	.type	initHuman, %function
initHuman:
	@ Function supports interworking.
	@ args = 0, pretend = 0, frame = 0
	@ frame_needed = 0, uses_anonymous_args = 0
	@ link register save eliminated.
	bx	lr
	.size	initHuman, .-initHuman
	.align	2
	.global	updateHuman
	.syntax unified
	.arm
	.fpu softvfp
	.type	updateHuman, %function
updateHuman:
	@ Function supports interworking.
	@ args = 0, pretend = 0, frame = 0
	@ frame_needed = 0, uses_anonymous_args = 0
	@ link register save eliminated.
	bx	lr
	.size	updateHuman, .-updateHuman
	.align	2
	.global	drawHuman
	.syntax unified
	.arm
	.fpu softvfp
	.type	drawHuman, %function
drawHuman:
	@ Function supports interworking.
	@ args = 0, pretend = 0, frame = 0
	@ frame_needed = 0, uses_anonymous_args = 0
	@ link register save eliminated.
	bx	lr
	.size	drawHuman, .-drawHuman
	.ident	"GCC: (devkitARM release 53) 9.1.0"
